target datalayout = "e-m:e-p270:32:32-p271:32:32-p272:64:64-i64:64-i128:128-f80:128-n8:16:32:64-S128"
target triple = "x86_64-pc-linux-gnu"

%"struct.pxrInternal_v0_24__pxrReserved__::TsTest_SplineData::InnerLoopParams" = type { i8, double, double, double, double, i8, double }

; Function Attrs: mustprogress nounwind uwtable
define void @_ZN32pxrInternal_v0_24__pxrReserved__17TsTest_SplineData15InnerLoopParamsC2Ev(ptr noundef nonnull align 8 dereferenceable(56) %0) unnamed_addr #2 align 2 {
  %2 = alloca ptr, align 8
  store ptr %0, ptr %2, align 8
  %3 = load ptr, ptr %2, align 8
  %4 = getelementptr inbounds nuw %"struct.pxrInternal_v0_24__pxrReserved__::TsTest_SplineData::InnerLoopParams", ptr %3, i32 0, i32 0
  store i8 0, ptr %4, align 8
  %5 = getelementptr inbounds nuw %"struct.pxrInternal_v0_24__pxrReserved__::TsTest_SplineData::InnerLoopParams", ptr %3, i32 0, i32 1
  store double 0.000000e+00, ptr %5, align 8
  %6 = getelementptr inbounds nuw %"struct.pxrInternal_v0_24__pxrReserved__::TsTest_SplineData::InnerLoopParams", ptr %3, i32 0, i32 2
  store double 0.000000e+00, ptr %6, align 8
  %7 = getelementptr inbounds nuw %"struct.pxrInternal_v0_24__pxrReserved__::TsTest_SplineData::InnerLoopParams", ptr %3, i32 0, i32 3
  store double 0.000000e+00, ptr %7, align 8
  %8 = getelementptr inbounds nuw %"struct.pxrInternal_v0_24__pxrReserved__::TsTest_SplineData::InnerLoopParams", ptr %3, i32 0, i32 4
  store double 0.000000e+00, ptr %8, align 8
  %9 = getelementptr inbounds nuw %"struct.pxrInternal_v0_24__pxrReserved__::TsTest_SplineData::InnerLoopParams", ptr %3, i32 0, i32 5
  store i8 1, ptr %9, align 8
  %10 = getelementptr inbounds nuw %"struct.pxrInternal_v0_24__pxrReserved__::TsTest_SplineData::InnerLoopParams", ptr %3, i32 0, i32 6
  store double 0.000000e+00, ptr %10, align 8
  ret void
}