; Function Attrs: mustprogress nofree norecurse nosync nounwind willreturn memory(argmem: write) uwtable
define void @_ZN32pxrInternal_v0_24__pxrReserved__17TsTest_SplineData15InnerLoopParamsC2Ev(ptr nocapture noundef nonnull writeonly align 8 dereferenceable(56) %0) unnamed_addr #1 align 2 {
  store i8 0, ptr %0, align 8
  %2 = getelementptr inbounds nuw i8, ptr %0, i64 8
  %3 = getelementptr inbounds nuw i8, ptr %0, i64 40
  tail call void @llvm.memset.p0.i64(ptr noundef nonnull align 8 dereferenceable(32) %2, i8 0, i64 32, i1 false)
  store i8 1, ptr %3, align 8
  %4 = getelementptr inbounds nuw i8, ptr %0, i64 48
  store double 0.000000e+00, ptr %4, align 8
  ret void
}